; Function Attrs: nofree norecurse nosync nounwind memory(argmem: read) uwtable
define dso_local range(i32 -2147483647, -2147483648) i32 @jv_object_iter(i64 %0, ptr readonly captures(none) %1) local_unnamed_addr #14 {
  %3 = ashr i64 %0, 32
  %smax = tail call i64 @llvm.smax.i64(i64 %3, i64 0)
  %4 = add nsw i64 %smax, -1
  %5 = getelementptr i8, ptr %1, i64 16
  br label %6

6:                                                ; preds = %7, %2
  %indvars.iv.i = phi i64 [ %indvars.iv.next.i, %7 ], [ -1, %2 ]
  %exitcond.not = icmp eq i64 %indvars.iv.i, %4
  br i1 %exitcond.not, label %jv_object_iter_next.exit, label %7

7:                                                ; preds = %6
  %indvars.iv.next.i = add nsw i64 %indvars.iv.i, 1
  %.idx = mul i64 %indvars.iv.next.i, 40
  %8 = getelementptr i8, ptr %5, i64 %.idx
  %9 = load i64, ptr %8, align 8
  %10 = and i64 %9, 15
  %11 = icmp eq i64 %10, 1
  br i1 %11, label %6, label %.split.loop.exit.i, !llvm.loop !64

.split.loop.exit.i:                               ; preds = %7
  %12 = trunc nsw i64 %indvars.iv.next.i to i32
  br label %jv_object_iter_next.exit

jv_object_iter_next.exit:                         ; preds = %6, %.split.loop.exit.i
  %.0.i = phi i32 [ %12, %.split.loop.exit.i ], [ -2, %6 ]
  ret i32 %.0.i
}